target datalayout = "e-m:e-p270:32:32-p271:32:32-p272:64:64-i64:64-i128:128-f80:128-n8:16:32:64-S128"
target triple = "x86_64-pc-linux-gnu"

%class.TypeNode = type { %class.Node.base, ptr }
%class.Node.base = type <{ ptr, ptr, ptr, i32, i32, i32, i32, i32, i32, i32 }>
%class.Node = type <{ ptr, ptr, ptr, i32, i32, i32, i32, i32, i32, i32, [4 x i8] }>
%class.PhaseValues = type { %class.PhaseTransform, i8, ptr, ptr, [137 x ptr], [137 x ptr], [20 x ptr] }
%class.PhaseTransform = type { ptr, %class.Phase }
%class.Phase = type { i32, ptr }
%class.Type_Array = type { ptr, i32, ptr }

@_ZN4Type3TOPE = external global ptr, align 8

; Function Attrs: mustprogress nounwind uwtable
define linkonce_odr hidden noundef ptr @_ZNK10Type_Array11fast_lookupEj(ptr noundef nonnull align 8 dereferenceable(24) %0, i32 noundef %1) #1 comdat align 2 {
  %3 = alloca ptr, align 8
  %4 = alloca i32, align 4
  store ptr %0, ptr %3, align 8
  store i32 %1, ptr %4, align 4
  %5 = load ptr, ptr %3, align 8
  %6 = getelementptr inbounds %class.Type_Array, ptr %5, i32 0, i32 2
  %7 = load ptr, ptr %6, align 8
  %8 = load i32, ptr %4, align 4
  %9 = zext i32 %8 to i64
  %10 = getelementptr inbounds ptr, ptr %7, i64 %9
  %11 = load ptr, ptr %10, align 8
  ret ptr %11
}

; Function Attrs: mustprogress nounwind uwtable
define linkonce_odr hidden noundef ptr @_ZNK4Type18filter_speculativeEPKS_(ptr noundef nonnull align 8 dereferenceable(20) %0, ptr noundef %1) #1 comdat align 2 {
  %3 = alloca ptr, align 8
  %4 = alloca ptr, align 8
  store ptr %0, ptr %3, align 8
  store ptr %1, ptr %4, align 8
  %5 = load ptr, ptr %3, align 8
  %6 = load ptr, ptr %4, align 8
  %7 = load ptr, ptr %5, align 8
  %8 = getelementptr inbounds ptr, ptr %7, i64 1
  %9 = load ptr, ptr %8, align 8
  %10 = call noundef ptr %9(ptr noundef nonnull align 8 dereferenceable(20) %5, ptr noundef %6, i1 noundef zeroext true)
  %11 = load ptr, ptr %10, align 8
  %12 = getelementptr inbounds ptr, ptr %11, i64 17
  %13 = load ptr, ptr %12, align 8
  %14 = call noundef ptr %13(ptr noundef nonnull align 8 dereferenceable(20) %10)
  ret ptr %14
}

; Function Attrs: mustprogress nounwind uwtable
define linkonce_odr hidden noundef ptr @_ZNK11PhaseValues4typeEPK4Node(ptr noundef nonnull align 8 dereferenceable(2400) %0, ptr noundef %1) #1 comdat align 2 {
  %3 = alloca ptr, align 8
  %4 = alloca ptr, align 8
  %5 = alloca ptr, align 8
  store ptr %0, ptr %3, align 8
  store ptr %1, ptr %4, align 8
  %6 = load ptr, ptr %3, align 8
  %7 = getelementptr inbounds %class.PhaseValues, ptr %6, i32 0, i32 3
  %8 = load ptr, ptr %7, align 8
  %9 = load ptr, ptr %4, align 8
  %10 = getelementptr inbounds %class.Node, ptr %9, i32 0, i32 7
  %11 = load i32, ptr %10, align 8
  %12 = call noundef ptr @_ZNK10Type_Array11fast_lookupEj(ptr noundef nonnull align 8 dereferenceable(24) %8, i32 noundef %11)
  store ptr %12, ptr %5, align 8
  %13 = load ptr, ptr %5, align 8
  ret ptr %13
}

; Function Attrs: mustprogress nounwind uwtable
define linkonce_odr hidden noundef ptr @_ZNK4Node2inEj(ptr noundef nonnull align 8 dereferenceable(52) %0, i32 noundef %1) #1 comdat align 2 {
  %3 = alloca ptr, align 8
  %4 = alloca i32, align 4
  store ptr %0, ptr %3, align 8
  store i32 %1, ptr %4, align 4
  %5 = load ptr, ptr %3, align 8
  %6 = getelementptr inbounds %class.Node, ptr %5, i32 0, i32 1
  %7 = load ptr, ptr %6, align 8
  %8 = load i32, ptr %4, align 4
  %9 = zext i32 %8 to i64
  %10 = getelementptr inbounds ptr, ptr %7, i64 %9
  %11 = load ptr, ptr %10, align 8
  ret ptr %11
}

; Function Attrs: mustprogress nounwind uwtable
define hidden noundef ptr @_ZNK18ConstraintCastNode5ValueEP8PhaseGVN(ptr noundef nonnull align 8 dereferenceable(80) %0, ptr noundef %1) unnamed_addr #1 align 2 {
  %3 = alloca ptr, align 8
  %4 = alloca ptr, align 8
  %5 = alloca ptr, align 8
  %6 = alloca ptr, align 8
  %7 = alloca ptr, align 8
  store ptr %0, ptr %4, align 8
  store ptr %1, ptr %5, align 8
  %8 = load ptr, ptr %4, align 8
  %9 = call noundef ptr @_ZNK4Node2inEj(ptr noundef nonnull align 8 dereferenceable(52) %8, i32 noundef 0)
  %10 = icmp ne ptr %9, null
  br i1 %10, label %11, label %19

11:                                               ; preds = %2
  %12 = load ptr, ptr %5, align 8
  %13 = call noundef ptr @_ZNK4Node2inEj(ptr noundef nonnull align 8 dereferenceable(52) %8, i32 noundef 0)
  %14 = call noundef ptr @_ZNK11PhaseValues4typeEPK4Node(ptr noundef nonnull align 8 dereferenceable(2400) %12, ptr noundef %13)
  %15 = load ptr, ptr @_ZN4Type3TOPE, align 8
  %16 = icmp eq ptr %14, %15
  br i1 %16, label %17, label %19

17:                                               ; preds = %11
  %18 = load ptr, ptr @_ZN4Type3TOPE, align 8
  store ptr %18, ptr %3, align 8
  br label %54

19:                                               ; preds = %11, %2
  %20 = load ptr, ptr %5, align 8
  %21 = call noundef ptr @_ZNK4Node2inEj(ptr noundef nonnull align 8 dereferenceable(52) %8, i32 noundef 1)
  %22 = call noundef ptr @_ZNK11PhaseValues4typeEPK4Node(ptr noundef nonnull align 8 dereferenceable(2400) %20, ptr noundef %21)
  store ptr %22, ptr %6, align 8
  %23 = load ptr, ptr %6, align 8
  %24 = getelementptr inbounds %class.TypeNode, ptr %8, i32 0, i32 1
  %25 = load ptr, ptr %24, align 8
  %26 = call noundef ptr @_ZNK4Type18filter_speculativeEPKS_(ptr noundef nonnull align 8 dereferenceable(20) %23, ptr noundef %25)
  store ptr %26, ptr %7, align 8
  %27 = load ptr, ptr %7, align 8
  %28 = load ptr, ptr %27, align 8
  %29 = getelementptr inbounds ptr, ptr %28, i64 11
  %30 = load ptr, ptr %29, align 8
  %31 = call noundef ptr %30(ptr noundef nonnull align 8 dereferenceable(20) %27)
  %32 = icmp eq ptr %31, null
  br i1 %32, label %33, label %52

33:                                               ; preds = %19
  %34 = getelementptr inbounds %class.TypeNode, ptr %8, i32 0, i32 1
  %35 = load ptr, ptr %34, align 8
  %36 = load ptr, ptr %35, align 8
  %37 = getelementptr inbounds ptr, ptr %36, i64 11
  %38 = load ptr, ptr %37, align 8
  %39 = call noundef ptr %38(ptr noundef nonnull align 8 dereferenceable(20) %35)
  %40 = icmp ne ptr %39, null
  br i1 %40, label %41, label %52

41:                                               ; preds = %33
  %42 = load ptr, ptr %6, align 8
  %43 = load ptr, ptr %42, align 8
  %44 = getelementptr inbounds ptr, ptr %43, i64 11
  %45 = load ptr, ptr %44, align 8
  %46 = call noundef ptr %45(ptr noundef nonnull align 8 dereferenceable(20) %42)
  %47 = icmp ne ptr %46, null
  br i1 %47, label %48, label %52

48:                                               ; preds = %41
  %49 = load ptr, ptr %6, align 8
  %50 = load ptr, ptr %7, align 8
  %51 = call noundef ptr @_ZNK4Type18filter_speculativeEPKS_(ptr noundef nonnull align 8 dereferenceable(20) %49, ptr noundef %50)
  store ptr %51, ptr %7, align 8
  br label %52

52:                                               ; preds = %48, %41, %33, %19
  %53 = load ptr, ptr %7, align 8
  store ptr %53, ptr %3, align 8
  br label %54

54:                                               ; preds = %52, %17
  %55 = load ptr, ptr %3, align 8
  ret ptr %55
}